target datalayout = "e-m:e-p270:32:32-p271:32:32-p272:64:64-i64:64-i128:128-f80:128-n8:16:32:64-S128"
target triple = "x86_64-pc-linux-gnu"

%struct.mbedtls_ecjpake_context = type { i32, %struct.mbedtls_ecp_group, i32, i32, %struct.mbedtls_ecp_point, %struct.mbedtls_ecp_point, %struct.mbedtls_ecp_point, %struct.mbedtls_ecp_point, %struct.mbedtls_ecp_point, %struct.mbedtls_mpi, %struct.mbedtls_mpi, %struct.mbedtls_mpi }
%struct.mbedtls_ecp_group = type { i32, %struct.mbedtls_mpi, %struct.mbedtls_mpi, %struct.mbedtls_mpi, %struct.mbedtls_ecp_point, %struct.mbedtls_mpi, i64, i64, i32, ptr, ptr, ptr, ptr, ptr, i64 }
%struct.mbedtls_ecp_point = type { %struct.mbedtls_mpi, %struct.mbedtls_mpi, %struct.mbedtls_mpi }
%struct.mbedtls_mpi = type { ptr, i16, i16 }

; Function Attrs: nounwind uwtable
define internal i32 @mbedtls_ecjpake_derive_k(ptr noundef %0, ptr noundef %1, ptr noundef %2, ptr noundef %3) #0 {
  %5 = alloca ptr, align 8
  %6 = alloca ptr, align 8
  %7 = alloca ptr, align 8
  %8 = alloca ptr, align 8
  %9 = alloca i32, align 4
  %10 = alloca %struct.mbedtls_mpi, align 8
  %11 = alloca %struct.mbedtls_mpi, align 8
  store ptr %0, ptr %5, align 8, !tbaa !3
  store ptr %1, ptr %6, align 8, !tbaa !28
  store ptr %2, ptr %7, align 8, !tbaa !30
  store ptr %3, ptr %8, align 8, !tbaa !30
  call void @llvm.lifetime.start.p0(i64 4, ptr %9) #9
  store i32 -110, ptr %9, align 4, !tbaa !19
  call void @llvm.lifetime.start.p0(i64 16, ptr %10) #9
  call void @llvm.lifetime.start.p0(i64 16, ptr %11) #9
  call void @mbedtls_mpi_init(ptr noundef %10)
  call void @mbedtls_mpi_init(ptr noundef %11)
  br label %12

12:                                               ; preds = %4
  %13 = call i32 @mbedtls_mpi_lset(ptr noundef %11, i64 noundef 1)
  store i32 %13, ptr %9, align 4, !tbaa !19
  %14 = icmp ne i32 %13, 0
  br i1 %14, label %15, label %16

15:                                               ; preds = %12
  br label %64

16:                                               ; preds = %12
  br label %17

17:                                               ; preds = %16
  br label %18

18:                                               ; preds = %17
  br label %19

19:                                               ; preds = %18
  %20 = load ptr, ptr %5, align 8, !tbaa !3
  %21 = getelementptr inbounds nuw %struct.mbedtls_ecjpake_context, ptr %20, i32 0, i32 10
  %22 = load ptr, ptr %5, align 8, !tbaa !3
  %23 = getelementptr inbounds nuw %struct.mbedtls_ecjpake_context, ptr %22, i32 0, i32 11
  %24 = load ptr, ptr %5, align 8, !tbaa !3
  %25 = getelementptr inbounds nuw %struct.mbedtls_ecjpake_context, ptr %24, i32 0, i32 1
  %26 = getelementptr inbounds nuw %struct.mbedtls_ecp_group, ptr %25, i32 0, i32 5
  %27 = load ptr, ptr %7, align 8, !tbaa !30
  %28 = load ptr, ptr %8, align 8, !tbaa !30
  %29 = call i32 @ecjpake_mul_secret(ptr noundef %10, i32 noundef -1, ptr noundef %21, ptr noundef %23, ptr noundef %26, ptr noundef %27, ptr noundef %28)
  store i32 %29, ptr %9, align 4, !tbaa !19
  %30 = icmp ne i32 %29, 0
  br i1 %30, label %31, label %32

31:                                               ; preds = %19
  br label %64

32:                                               ; preds = %19
  br label %33

33:                                               ; preds = %32
  br label %34

34:                                               ; preds = %33
  br label %35

35:                                               ; preds = %34
  %36 = load ptr, ptr %5, align 8, !tbaa !3
  %37 = getelementptr inbounds nuw %struct.mbedtls_ecjpake_context, ptr %36, i32 0, i32 1
  %38 = load ptr, ptr %6, align 8, !tbaa !28
  %39 = load ptr, ptr %5, align 8, !tbaa !3
  %40 = getelementptr inbounds nuw %struct.mbedtls_ecjpake_context, ptr %39, i32 0, i32 8
  %41 = load ptr, ptr %5, align 8, !tbaa !3
  %42 = getelementptr inbounds nuw %struct.mbedtls_ecjpake_context, ptr %41, i32 0, i32 7
  %43 = call i32 @mbedtls_ecp_muladd(ptr noundef %37, ptr noundef %38, ptr noundef %11, ptr noundef %40, ptr noundef %10, ptr noundef %42)
  store i32 %43, ptr %9, align 4, !tbaa !19
  %44 = icmp ne i32 %43, 0
  br i1 %44, label %45, label %46

45:                                               ; preds = %35
  br label %64

46:                                               ; preds = %35
  br label %47

47:                                               ; preds = %46
  br label %48

48:                                               ; preds = %47
  br label %49

49:                                               ; preds = %48
  %50 = load ptr, ptr %5, align 8, !tbaa !3
  %51 = getelementptr inbounds nuw %struct.mbedtls_ecjpake_context, ptr %50, i32 0, i32 1
  %52 = load ptr, ptr %6, align 8, !tbaa !28
  %53 = load ptr, ptr %5, align 8, !tbaa !3
  %54 = getelementptr inbounds nuw %struct.mbedtls_ecjpake_context, ptr %53, i32 0, i32 10
  %55 = load ptr, ptr %6, align 8, !tbaa !28
  %56 = load ptr, ptr %7, align 8, !tbaa !30
  %57 = load ptr, ptr %8, align 8, !tbaa !30
  %58 = call i32 @mbedtls_ecp_mul(ptr noundef %51, ptr noundef %52, ptr noundef %54, ptr noundef %55, ptr noundef %56, ptr noundef %57)
  store i32 %58, ptr %9, align 4, !tbaa !19
  %59 = icmp ne i32 %58, 0
  br i1 %59, label %60, label %61

60:                                               ; preds = %49
  br label %64

61:                                               ; preds = %49
  br label %62

62:                                               ; preds = %61
  br label %63

63:                                               ; preds = %62
  br label %64

64:                                               ; preds = %63, %60, %45, %31, %15
  call void @mbedtls_mpi_free(ptr noundef %10)
  call void @mbedtls_mpi_free(ptr noundef %11)
  %65 = load i32, ptr %9, align 4, !tbaa !19
  call void @llvm.lifetime.end.p0(i64 16, ptr %11) #9
  call void @llvm.lifetime.end.p0(i64 16, ptr %10) #9
  call void @llvm.lifetime.end.p0(i64 4, ptr %9) #9
  ret i32 %65
}