; Function Attrs: nounwind uwtable
define internal fastcc i32 @mbedtls_ecjpake_derive_k(ptr noundef %0, ptr noundef nonnull %1, ptr noundef %2, ptr noundef %3) unnamed_addr #0 {
  %5 = alloca %struct.mbedtls_mpi, align 8
  %6 = alloca %struct.mbedtls_mpi, align 8
  call void @llvm.lifetime.start.p0(i64 16, ptr nonnull %5) #15
  call void @llvm.lifetime.start.p0(i64 16, ptr nonnull %6) #15
  call void @mbedtls_mpi_init(ptr noundef nonnull %5) #15
  call void @mbedtls_mpi_init(ptr noundef nonnull %6) #15
  %7 = call i32 @mbedtls_mpi_lset(ptr noundef nonnull %6, i64 noundef 1) #15
  %.not = icmp eq i32 %7, 0
  br i1 %.not, label %8, label %20

8:                                                ; preds = %4
  %9 = getelementptr inbounds nuw i8, ptr %0, i64 464
  %10 = getelementptr inbounds nuw i8, ptr %0, i64 480
  %11 = getelementptr inbounds nuw i8, ptr %0, i64 8
  %12 = getelementptr inbounds nuw i8, ptr %0, i64 112
  %13 = call fastcc i32 @ecjpake_mul_secret(ptr noundef %5, i32 noundef -1, ptr noundef nonnull %9, ptr noundef nonnull %10, ptr noundef nonnull %12, ptr noundef %2, ptr noundef %3)
  %.not18 = icmp eq i32 %13, 0
  br i1 %.not18, label %14, label %20

14:                                               ; preds = %8
  %15 = getelementptr inbounds nuw i8, ptr %0, i64 400
  %16 = getelementptr inbounds nuw i8, ptr %0, i64 352
  %17 = call i32 @mbedtls_ecp_muladd(ptr noundef nonnull %11, ptr noundef nonnull %1, ptr noundef nonnull %6, ptr noundef nonnull %15, ptr noundef nonnull %5, ptr noundef nonnull %16) #15
  %.not19 = icmp eq i32 %17, 0
  br i1 %.not19, label %18, label %20

18:                                               ; preds = %14
  %19 = call i32 @mbedtls_ecp_mul(ptr noundef nonnull %11, ptr noundef nonnull %1, ptr noundef nonnull %9, ptr noundef nonnull %1, ptr noundef %2, ptr noundef %3) #15
  br label %20

20:                                               ; preds = %18, %14, %8, %4
  %.0 = phi i32 [ %7, %4 ], [ %13, %8 ], [ %17, %14 ], [ %19, %18 ]
  call void @mbedtls_mpi_free(ptr noundef nonnull %5) #15
  call void @mbedtls_mpi_free(ptr noundef nonnull %6) #15
  call void @llvm.lifetime.end.p0(i64 16, ptr nonnull %6) #15
  call void @llvm.lifetime.end.p0(i64 16, ptr nonnull %5) #15
  ret i32 %.0
}